target datalayout = "e-m:e-p270:32:32-p271:32:32-p272:64:64-i64:64-i128:128-f80:128-n8:16:32:64-S128"
target triple = "x86_64-pc-linux-gnu"

%struct.anon = type { ptr, ptr, i32, i64, i64, i64, i64, i32, i32, [1024 x i8] }
%struct._rio = type { ptr, ptr, ptr, ptr, ptr, i64, i64, i64, i64, %union.anon }
%union.anon = type { %struct.anon.2 }
%struct.anon.2 = type { ptr, i64, ptr, i64, i64 }
%struct.__va_list_tag = type { i32, i32, ptr, ptr }

@rdbstate = dso_local global %struct.anon zeroinitializer, align 8
@.str.41 = private unnamed_addr constant [18 x i8] c"[offset %llu] %s\0A\00", align 1

; Function Attrs: nounwind uwtable
define dso_local void @rdbCheckInfo(ptr noundef %0, ...) #0 {
  %2 = alloca ptr, align 8
  %3 = alloca [1024 x i8], align 16
  %4 = alloca [1 x %struct.__va_list_tag], align 16
  store ptr %0, ptr %2, align 8, !tbaa !17
  call void @llvm.lifetime.start.p0(i64 1024, ptr %3) #9
  call void @llvm.lifetime.start.p0(i64 24, ptr %4) #9
  %5 = getelementptr inbounds [1 x %struct.__va_list_tag], ptr %4, i64 0, i64 0
  call void @llvm.va_start.p0(ptr %5)
  %6 = getelementptr inbounds [1024 x i8], ptr %3, i64 0, i64 0
  %7 = load ptr, ptr %2, align 8, !tbaa !17
  %8 = getelementptr inbounds [1 x %struct.__va_list_tag], ptr %4, i64 0, i64 0
  %9 = call i32 @vsnprintf(ptr noundef %6, i64 noundef 1024, ptr noundef %7, ptr noundef %8) #9
  %10 = getelementptr inbounds [1 x %struct.__va_list_tag], ptr %4, i64 0, i64 0
  call void @llvm.va_end.p0(ptr %10)
  %11 = load ptr, ptr @rdbstate, align 8, !tbaa !19
  %12 = icmp ne ptr %11, null
  br i1 %12, label %13, label %17

13:                                               ; preds = %1
  %14 = load ptr, ptr @rdbstate, align 8, !tbaa !19
  %15 = getelementptr inbounds nuw %struct._rio, ptr %14, i32 0, i32 7
  %16 = load i64, ptr %15, align 8, !tbaa !20
  br label %18

17:                                               ; preds = %1
  br label %18

18:                                               ; preds = %17, %13
  %19 = phi i64 [ %16, %13 ], [ 0, %17 ]
  %20 = getelementptr inbounds [1024 x i8], ptr %3, i64 0, i64 0
  %21 = call i32 (ptr, ...) @printf(ptr noundef @.str.41, i64 noundef %19, ptr noundef %20)
  call void @llvm.lifetime.end.p0(i64 24, ptr %4) #9
  call void @llvm.lifetime.end.p0(i64 1024, ptr %3) #9
  ret void
}