; Function Attrs: nofree nounwind uwtable
define dso_local void @rdbCheckInfo(ptr noundef readonly captures(none) %0, ...) local_unnamed_addr #0 {
  %2 = alloca [1024 x i8], align 16
  %3 = alloca [1 x %struct.__va_list_tag], align 16
  call void @llvm.lifetime.start.p0(i64 1024, ptr nonnull %2) #15
  call void @llvm.lifetime.start.p0(i64 24, ptr nonnull %3) #15
  call void @llvm.va_start.p0(ptr nonnull %3)
  %4 = call i32 @vsnprintf(ptr noundef nonnull %2, i64 noundef 1024, ptr noundef %0, ptr noundef nonnull %3) #15
  call void @llvm.va_end.p0(ptr nonnull %3)
  %5 = load ptr, ptr @rdbstate, align 8, !tbaa !17
  %.not = icmp eq ptr %5, null
  br i1 %.not, label %9, label %6

6:                                                ; preds = %1
  %7 = getelementptr inbounds nuw i8, ptr %5, i64 56
  %8 = load i64, ptr %7, align 8, !tbaa !18
  br label %9

9:                                                ; preds = %1, %6
  %10 = phi i64 [ %8, %6 ], [ 0, %1 ]
  %11 = call i32 (ptr, ...) @printf(ptr noundef nonnull dereferenceable(1) @.str.41, i64 noundef %10, ptr noundef nonnull %2)
  call void @llvm.lifetime.end.p0(i64 24, ptr nonnull %3) #15
  call void @llvm.lifetime.end.p0(i64 1024, ptr nonnull %2) #15
  ret void
}